; ModuleID = 'bench/bullet3/original/btActivatingCollisionAlgorithm.ll'
source_filename = "bench/bullet3/original/btActivatingCollisionAlgorithm.ll"
target datalayout = "e-m:e-p270:32:32-p271:32:32-p272:64:64-i64:64-i128:128-f80:128-n8:16:32:64-S128"
target triple = "x86_64-unknown-linux-gnu"

$_ZTS20btCollisionAlgorithm = comdat any

$_ZTI20btCollisionAlgorithm = comdat any

@_ZTV30btActivatingCollisionAlgorithm = dso_local unnamed_addr constant { [7 x ptr] } { [7 x ptr] [ptr null, ptr @_ZTI30btActivatingCollisionAlgorithm, ptr @_ZN30btActivatingCollisionAlgorithmD2Ev, ptr @_ZN30btActivatingCollisionAlgorithmD0Ev, ptr @__cxa_pure_virtual, ptr @__cxa_pure_virtual, ptr @__cxa_pure_virtual] }, align 8
@_ZTVN10__cxxabiv120__si_class_type_infoE = external global [0 x ptr]
@_ZTS30btActivatingCollisionAlgorithm = dso_local constant [33 x i8] c"30btActivatingCollisionAlgorithm\00", align 1
@_ZTVN10__cxxabiv117__class_type_infoE = external global [0 x ptr]
@_ZTS20btCollisionAlgorithm = linkonce_odr dso_local constant [23 x i8] c"20btCollisionAlgorithm\00", comdat, align 1
@_ZTI20btCollisionAlgorithm = linkonce_odr dso_local constant { ptr, ptr } { ptr getelementptr inbounds (ptr, ptr @_ZTVN10__cxxabiv117__class_type_infoE, i64 2), ptr @_ZTS20btCollisionAlgorithm }, comdat, align 8
@_ZTI30btActivatingCollisionAlgorithm = dso_local constant { ptr, ptr, ptr } { ptr getelementptr inbounds (ptr, ptr @_ZTVN10__cxxabiv120__si_class_type_infoE, i64 2), ptr @_ZTS30btActivatingCollisionAlgorithm, ptr @_ZTI20btCollisionAlgorithm }, align 8
@llvm.global_ctors = appending global [0 x { i32, ptr, ptr }] zeroinitializer

@_ZN30btActivatingCollisionAlgorithmD1Ev = dso_local unnamed_addr alias void (ptr), ptr @_ZN30btActivatingCollisionAlgorithmD2Ev

; Function Attrs: mustprogress uwtable
define dso_local void @_ZN30btActivatingCollisionAlgorithmC2ERK36btCollisionAlgorithmConstructionInfo(ptr noundef nonnull align 8 dereferenceable(16) %this, ptr noundef nonnull align 8 dereferenceable(16) %ci) unnamed_addr #0 align 2 {
entry:
  tail call void @_ZN20btCollisionAlgorithmC2ERK36btCollisionAlgorithmConstructionInfo(ptr noundef nonnull align 8 dereferenceable(16) %this, ptr noundef nonnull align 8 dereferenceable(16) %ci)
  store ptr getelementptr inbounds ({ [7 x ptr] }, ptr @_ZTV30btActivatingCollisionAlgorithm, i64 0, i32 0, i64 2), ptr %this, align 8
  ret void
}

declare void @_ZN20btCollisionAlgorithmC2ERK36btCollisionAlgorithmConstructionInfo(ptr noundef nonnull align 8 dereferenceable(16), ptr noundef nonnull align 8 dereferenceable(16)) unnamed_addr #1

; Function Attrs: mustprogress uwtable
define dso_local void @_ZN30btActivatingCollisionAlgorithmC2ERK36btCollisionAlgorithmConstructionInfoPK24btCollisionObjectWrapperS5_(ptr noundef nonnull align 8 dereferenceable(16) %this, ptr noundef nonnull align 8 dereferenceable(16) %ci, ptr nocapture noundef readnone %0, ptr nocapture noundef readnone %1) unnamed_addr #0 align 2 {
entry:
  tail call void @_ZN20btCollisionAlgorithmC2ERK36btCollisionAlgorithmConstructionInfo(ptr noundef nonnull align 8 dereferenceable(16) %this, ptr noundef nonnull align 8 dereferenceable(16) %ci)
  store ptr getelementptr inbounds ({ [7 x ptr] }, ptr @_ZTV30btActivatingCollisionAlgorithm, i64 0, i32 0, i64 2), ptr %this, align 8
  ret void
}

; Function Attrs: mustprogress nofree norecurse nosync nounwind willreturn memory(none) uwtable
define dso_local void @_ZN30btActivatingCollisionAlgorithmD2Ev(ptr nocapture nonnull readnone align 8 %this) unnamed_addr #2 align 2 {
entry:
  ret void
}

; Function Attrs: mustprogress noreturn nounwind memory(inaccessiblemem: write) uwtable
define dso_local void @_ZN30btActivatingCollisionAlgorithmD0Ev(ptr nocapture nonnull readnone align 8 %this) unnamed_addr #3 align 2 {
entry:
  tail call void @llvm.trap() #5
  unreachable
}

; Function Attrs: cold noreturn nounwind memory(inaccessiblemem: write)
declare void @llvm.trap() #4

declare void @__cxa_pure_virtual() unnamed_addr


!llvm.module.flags = !{!0, !1, !2, !3, !4}

!0 = !{i32 1, !"wchar_size", i32 4}
!1 = !{i32 8, !"PIC Level", i32 2}
!2 = !{i32 7, !"PIE Level", i32 2}
!3 = !{i32 7, !"uwtable", i32 2}
!4 = !{i32 7, !"frame-pointer", i32 2}
